target datalayout = "e-m:e-p270:32:32-p271:32:32-p272:64:64-i64:64-i128:128-f80:128-n8:16:32:64-S128"
target triple = "x86_64-pc-linux-gnu"

@.str.503 = private unnamed_addr constant [33 x i8] c"%4ld items in the session cache\0A\00", align 1
@.str.504 = private unnamed_addr constant [38 x i8] c"%4ld client connects (SSL_connect())\0A\00", align 1
@.str.505 = private unnamed_addr constant [42 x i8] c"%4ld client renegotiates (SSL_connect())\0A\00", align 1
@.str.506 = private unnamed_addr constant [36 x i8] c"%4ld client connects that finished\0A\00", align 1
@.str.507 = private unnamed_addr constant [36 x i8] c"%4ld server accepts (SSL_accept())\0A\00", align 1
@.str.508 = private unnamed_addr constant [41 x i8] c"%4ld server renegotiates (SSL_accept())\0A\00", align 1
@.str.509 = private unnamed_addr constant [35 x i8] c"%4ld server accepts that finished\0A\00", align 1
@.str.510 = private unnamed_addr constant [25 x i8] c"%4ld session cache hits\0A\00", align 1
@.str.511 = private unnamed_addr constant [27 x i8] c"%4ld session cache misses\0A\00", align 1
@.str.512 = private unnamed_addr constant [29 x i8] c"%4ld session cache timeouts\0A\00", align 1
@.str.513 = private unnamed_addr constant [26 x i8] c"%4ld callback cache hits\0A\00", align 1
@.str.514 = private unnamed_addr constant [41 x i8] c"%4ld cache full overflows (%ld allowed)\0A\00", align 1

; Function Attrs: nounwind uwtable
define internal void @print_stats(ptr noundef %0, ptr noundef %1) #0 {
  %3 = alloca ptr, align 8
  %4 = alloca ptr, align 8
  store ptr %0, ptr %3, align 8, !tbaa !35
  store ptr %1, ptr %4, align 8, !tbaa !33
  %5 = load ptr, ptr %3, align 8, !tbaa !35
  %6 = load ptr, ptr %4, align 8, !tbaa !33
  %7 = call i64 @SSL_CTX_ctrl(ptr noundef %6, i32 noundef 20, i64 noundef 0, ptr noundef null)
  %8 = call i32 (ptr, ptr, ...) @BIO_printf(ptr noundef %5, ptr noundef @.str.503, i64 noundef %7)
  %9 = load ptr, ptr %3, align 8, !tbaa !35
  %10 = load ptr, ptr %4, align 8, !tbaa !33
  %11 = call i64 @SSL_CTX_ctrl(ptr noundef %10, i32 noundef 21, i64 noundef 0, ptr noundef null)
  %12 = call i32 (ptr, ptr, ...) @BIO_printf(ptr noundef %9, ptr noundef @.str.504, i64 noundef %11)
  %13 = load ptr, ptr %3, align 8, !tbaa !35
  %14 = load ptr, ptr %4, align 8, !tbaa !33
  %15 = call i64 @SSL_CTX_ctrl(ptr noundef %14, i32 noundef 23, i64 noundef 0, ptr noundef null)
  %16 = call i32 (ptr, ptr, ...) @BIO_printf(ptr noundef %13, ptr noundef @.str.505, i64 noundef %15)
  %17 = load ptr, ptr %3, align 8, !tbaa !35
  %18 = load ptr, ptr %4, align 8, !tbaa !33
  %19 = call i64 @SSL_CTX_ctrl(ptr noundef %18, i32 noundef 22, i64 noundef 0, ptr noundef null)
  %20 = call i32 (ptr, ptr, ...) @BIO_printf(ptr noundef %17, ptr noundef @.str.506, i64 noundef %19)
  %21 = load ptr, ptr %3, align 8, !tbaa !35
  %22 = load ptr, ptr %4, align 8, !tbaa !33
  %23 = call i64 @SSL_CTX_ctrl(ptr noundef %22, i32 noundef 24, i64 noundef 0, ptr noundef null)
  %24 = call i32 (ptr, ptr, ...) @BIO_printf(ptr noundef %21, ptr noundef @.str.507, i64 noundef %23)
  %25 = load ptr, ptr %3, align 8, !tbaa !35
  %26 = load ptr, ptr %4, align 8, !tbaa !33
  %27 = call i64 @SSL_CTX_ctrl(ptr noundef %26, i32 noundef 26, i64 noundef 0, ptr noundef null)
  %28 = call i32 (ptr, ptr, ...) @BIO_printf(ptr noundef %25, ptr noundef @.str.508, i64 noundef %27)
  %29 = load ptr, ptr %3, align 8, !tbaa !35
  %30 = load ptr, ptr %4, align 8, !tbaa !33
  %31 = call i64 @SSL_CTX_ctrl(ptr noundef %30, i32 noundef 25, i64 noundef 0, ptr noundef null)
  %32 = call i32 (ptr, ptr, ...) @BIO_printf(ptr noundef %29, ptr noundef @.str.509, i64 noundef %31)
  %33 = load ptr, ptr %3, align 8, !tbaa !35
  %34 = load ptr, ptr %4, align 8, !tbaa !33
  %35 = call i64 @SSL_CTX_ctrl(ptr noundef %34, i32 noundef 27, i64 noundef 0, ptr noundef null)
  %36 = call i32 (ptr, ptr, ...) @BIO_printf(ptr noundef %33, ptr noundef @.str.510, i64 noundef %35)
  %37 = load ptr, ptr %3, align 8, !tbaa !35
  %38 = load ptr, ptr %4, align 8, !tbaa !33
  %39 = call i64 @SSL_CTX_ctrl(ptr noundef %38, i32 noundef 29, i64 noundef 0, ptr noundef null)
  %40 = call i32 (ptr, ptr, ...) @BIO_printf(ptr noundef %37, ptr noundef @.str.511, i64 noundef %39)
  %41 = load ptr, ptr %3, align 8, !tbaa !35
  %42 = load ptr, ptr %4, align 8, !tbaa !33
  %43 = call i64 @SSL_CTX_ctrl(ptr noundef %42, i32 noundef 30, i64 noundef 0, ptr noundef null)
  %44 = call i32 (ptr, ptr, ...) @BIO_printf(ptr noundef %41, ptr noundef @.str.512, i64 noundef %43)
  %45 = load ptr, ptr %3, align 8, !tbaa !35
  %46 = load ptr, ptr %4, align 8, !tbaa !33
  %47 = call i64 @SSL_CTX_ctrl(ptr noundef %46, i32 noundef 28, i64 noundef 0, ptr noundef null)
  %48 = call i32 (ptr, ptr, ...) @BIO_printf(ptr noundef %45, ptr noundef @.str.513, i64 noundef %47)
  %49 = load ptr, ptr %3, align 8, !tbaa !35
  %50 = load ptr, ptr %4, align 8, !tbaa !33
  %51 = call i64 @SSL_CTX_ctrl(ptr noundef %50, i32 noundef 31, i64 noundef 0, ptr noundef null)
  %52 = load ptr, ptr %4, align 8, !tbaa !33
  %53 = call i64 @SSL_CTX_ctrl(ptr noundef %52, i32 noundef 43, i64 noundef 0, ptr noundef null)
  %54 = call i32 (ptr, ptr, ...) @BIO_printf(ptr noundef %49, ptr noundef @.str.514, i64 noundef %51, i64 noundef %53)
  ret void
}