; Function Attrs: nounwind uwtable
define internal fastcc void @print_stats(ptr noundef %0, ptr noundef %1) unnamed_addr #0 {
  %3 = tail call i64 @SSL_CTX_ctrl(ptr noundef %1, i32 noundef 20, i64 noundef 0, ptr noundef null) #14
  %4 = tail call i32 (ptr, ptr, ...) @BIO_printf(ptr noundef %0, ptr noundef nonnull @.str.503, i64 noundef %3) #14
  %5 = tail call i64 @SSL_CTX_ctrl(ptr noundef %1, i32 noundef 21, i64 noundef 0, ptr noundef null) #14
  %6 = tail call i32 (ptr, ptr, ...) @BIO_printf(ptr noundef %0, ptr noundef nonnull @.str.504, i64 noundef %5) #14
  %7 = tail call i64 @SSL_CTX_ctrl(ptr noundef %1, i32 noundef 23, i64 noundef 0, ptr noundef null) #14
  %8 = tail call i32 (ptr, ptr, ...) @BIO_printf(ptr noundef %0, ptr noundef nonnull @.str.505, i64 noundef %7) #14
  %9 = tail call i64 @SSL_CTX_ctrl(ptr noundef %1, i32 noundef 22, i64 noundef 0, ptr noundef null) #14
  %10 = tail call i32 (ptr, ptr, ...) @BIO_printf(ptr noundef %0, ptr noundef nonnull @.str.506, i64 noundef %9) #14
  %11 = tail call i64 @SSL_CTX_ctrl(ptr noundef %1, i32 noundef 24, i64 noundef 0, ptr noundef null) #14
  %12 = tail call i32 (ptr, ptr, ...) @BIO_printf(ptr noundef %0, ptr noundef nonnull @.str.507, i64 noundef %11) #14
  %13 = tail call i64 @SSL_CTX_ctrl(ptr noundef %1, i32 noundef 26, i64 noundef 0, ptr noundef null) #14
  %14 = tail call i32 (ptr, ptr, ...) @BIO_printf(ptr noundef %0, ptr noundef nonnull @.str.508, i64 noundef %13) #14
  %15 = tail call i64 @SSL_CTX_ctrl(ptr noundef %1, i32 noundef 25, i64 noundef 0, ptr noundef null) #14
  %16 = tail call i32 (ptr, ptr, ...) @BIO_printf(ptr noundef %0, ptr noundef nonnull @.str.509, i64 noundef %15) #14
  %17 = tail call i64 @SSL_CTX_ctrl(ptr noundef %1, i32 noundef 27, i64 noundef 0, ptr noundef null) #14
  %18 = tail call i32 (ptr, ptr, ...) @BIO_printf(ptr noundef %0, ptr noundef nonnull @.str.510, i64 noundef %17) #14
  %19 = tail call i64 @SSL_CTX_ctrl(ptr noundef %1, i32 noundef 29, i64 noundef 0, ptr noundef null) #14
  %20 = tail call i32 (ptr, ptr, ...) @BIO_printf(ptr noundef %0, ptr noundef nonnull @.str.511, i64 noundef %19) #14
  %21 = tail call i64 @SSL_CTX_ctrl(ptr noundef %1, i32 noundef 30, i64 noundef 0, ptr noundef null) #14
  %22 = tail call i32 (ptr, ptr, ...) @BIO_printf(ptr noundef %0, ptr noundef nonnull @.str.512, i64 noundef %21) #14
  %23 = tail call i64 @SSL_CTX_ctrl(ptr noundef %1, i32 noundef 28, i64 noundef 0, ptr noundef null) #14
  %24 = tail call i32 (ptr, ptr, ...) @BIO_printf(ptr noundef %0, ptr noundef nonnull @.str.513, i64 noundef %23) #14
  %25 = tail call i64 @SSL_CTX_ctrl(ptr noundef %1, i32 noundef 31, i64 noundef 0, ptr noundef null) #14
  %26 = tail call i64 @SSL_CTX_ctrl(ptr noundef %1, i32 noundef 43, i64 noundef 0, ptr noundef null) #14
  %27 = tail call i32 (ptr, ptr, ...) @BIO_printf(ptr noundef %0, ptr noundef nonnull @.str.514, i64 noundef %25, i64 noundef %26) #14
  ret void
}